target datalayout = "e-m:e-p270:32:32-p271:32:32-p272:64:64-i64:64-i128:128-f80:128-n8:16:32:64-S128"
target triple = "x86_64-pc-linux-gnu"

@.str.116 = private unnamed_addr constant [12 x i8] c"%d.%d.%d.%d\00", align 1

; Function Attrs: null_pointer_is_valid sspstrong uwtable
define internal void @dispIP(ptr noundef %0, i32 noundef %1) #0 {
  %3 = alloca ptr, align 8
  %4 = alloca i32, align 4
  %5 = alloca ptr, align 8
  store ptr %0, ptr %3, align 8
  store i32 %1, ptr %4, align 4
  call void @llvm.lifetime.start.p0(i64 8, ptr %5) #7
  store ptr %4, ptr %5, align 8
  %6 = load ptr, ptr %3, align 8
  %7 = load ptr, ptr %3, align 8
  %8 = call i64 @llvm.objectsize.i64.p0(ptr %7, i1 false, i1 true, i1 true)
  %9 = load ptr, ptr %5, align 8
  %10 = getelementptr i8, ptr %9, i64 3
  %11 = load i8, ptr %10, align 1
  %12 = zext i8 %11 to i32
  %13 = load ptr, ptr %5, align 8
  %14 = getelementptr i8, ptr %13, i64 2
  %15 = load i8, ptr %14, align 1
  %16 = zext i8 %15 to i32
  %17 = load ptr, ptr %5, align 8
  %18 = getelementptr i8, ptr %17, i64 1
  %19 = load i8, ptr %18, align 1
  %20 = zext i8 %19 to i32
  %21 = load ptr, ptr %5, align 8
  %22 = getelementptr i8, ptr %21, i64 0
  %23 = load i8, ptr %22, align 1
  %24 = zext i8 %23 to i32
  %25 = call i32 (ptr, i64, i32, i64, ptr, ...) @__snprintf_chk(ptr noundef %6, i64 noundef 240, i32 noundef 2, i64 noundef %8, ptr noundef @.str.116, i32 noundef %12, i32 noundef %16, i32 noundef %20, i32 noundef %24)
  call void @llvm.lifetime.end.p0(i64 8, ptr %5) #7
  ret void
}